target datalayout = "e-m:e-p270:32:32-p271:32:32-p272:64:64-i64:64-i128:128-f80:128-n8:16:32:64-S128"
target triple = "x86_64-pc-linux-gnu"

%struct.possible_tag = type { ptr, i32, i32, i32 }

; Function Attrs: nounwind uwtable
define internal i32 @compare_pt(ptr noundef %0, ptr noundef %1) #0 {
  %3 = alloca i32, align 4
  %4 = alloca ptr, align 8
  %5 = alloca ptr, align 8
  %6 = alloca ptr, align 8
  %7 = alloca ptr, align 8
  %8 = alloca i32, align 4
  store ptr %0, ptr %4, align 8, !tbaa !68
  store ptr %1, ptr %5, align 8, !tbaa !68
  call void @llvm.lifetime.start.p0(i64 8, ptr %6) #9
  %9 = load ptr, ptr %4, align 8, !tbaa !68
  store ptr %9, ptr %6, align 8, !tbaa !114
  call void @llvm.lifetime.start.p0(i64 8, ptr %7) #9
  %10 = load ptr, ptr %5, align 8, !tbaa !68
  store ptr %10, ptr %7, align 8, !tbaa !114
  %11 = load ptr, ptr %6, align 8, !tbaa !114
  %12 = getelementptr inbounds nuw %struct.possible_tag, ptr %11, i32 0, i32 1
  %13 = load i32, ptr %12, align 8, !tbaa !118
  %14 = load ptr, ptr %7, align 8, !tbaa !114
  %15 = getelementptr inbounds nuw %struct.possible_tag, ptr %14, i32 0, i32 1
  %16 = load i32, ptr %15, align 8, !tbaa !118
  %17 = icmp ne i32 %13, %16
  br i1 %17, label %18, label %26

18:                                               ; preds = %2
  %19 = load ptr, ptr %6, align 8, !tbaa !114
  %20 = getelementptr inbounds nuw %struct.possible_tag, ptr %19, i32 0, i32 1
  %21 = load i32, ptr %20, align 8, !tbaa !118
  %22 = load ptr, ptr %7, align 8, !tbaa !114
  %23 = getelementptr inbounds nuw %struct.possible_tag, ptr %22, i32 0, i32 1
  %24 = load i32, ptr %23, align 8, !tbaa !118
  %25 = sub nsw i32 %21, %24
  store i32 %25, ptr %3, align 4
  store i32 1, ptr %8, align 4
  br label %43

26:                                               ; preds = %2
  %27 = load ptr, ptr %6, align 8, !tbaa !114
  %28 = getelementptr inbounds nuw %struct.possible_tag, ptr %27, i32 0, i32 2
  %29 = load i32, ptr %28, align 4, !tbaa !120
  %30 = load ptr, ptr %7, align 8, !tbaa !114
  %31 = getelementptr inbounds nuw %struct.possible_tag, ptr %30, i32 0, i32 2
  %32 = load i32, ptr %31, align 4, !tbaa !120
  %33 = icmp ne i32 %29, %32
  br i1 %33, label %34, label %42

34:                                               ; preds = %26
  %35 = load ptr, ptr %6, align 8, !tbaa !114
  %36 = getelementptr inbounds nuw %struct.possible_tag, ptr %35, i32 0, i32 2
  %37 = load i32, ptr %36, align 4, !tbaa !120
  %38 = load ptr, ptr %7, align 8, !tbaa !114
  %39 = getelementptr inbounds nuw %struct.possible_tag, ptr %38, i32 0, i32 2
  %40 = load i32, ptr %39, align 4, !tbaa !120
  %41 = sub nsw i32 %37, %40
  store i32 %41, ptr %3, align 4
  store i32 1, ptr %8, align 4
  br label %43

42:                                               ; preds = %26
  store i32 0, ptr %3, align 4
  store i32 1, ptr %8, align 4
  br label %43

43:                                               ; preds = %42, %34, %18
  call void @llvm.lifetime.end.p0(i64 8, ptr %7) #9
  call void @llvm.lifetime.end.p0(i64 8, ptr %6) #9
  %44 = load i32, ptr %3, align 4
  ret i32 %44
}