; Function Attrs: mustprogress nofree norecurse nosync nounwind willreturn memory(argmem: read) uwtable
define internal i32 @compare_pt(ptr noundef readonly captures(none) %0, ptr noundef readonly captures(none) %1) #11 {
  %3 = getelementptr inbounds nuw i8, ptr %0, i64 8
  %4 = load i32, ptr %3, align 8, !tbaa !101
  %5 = getelementptr inbounds nuw i8, ptr %1, i64 8
  %6 = load i32, ptr %5, align 8, !tbaa !101
  %.not = icmp eq i32 %4, %6
  br i1 %.not, label %9, label %7

7:                                                ; preds = %2
  %8 = sub nsw i32 %4, %6
  br label %15

9:                                                ; preds = %2
  %10 = getelementptr inbounds nuw i8, ptr %0, i64 12
  %11 = load i32, ptr %10, align 4, !tbaa !103
  %12 = getelementptr inbounds nuw i8, ptr %1, i64 12
  %13 = load i32, ptr %12, align 4, !tbaa !103
  %14 = sub nsw i32 %11, %13
  br label %15

15:                                               ; preds = %9, %7
  %.0 = phi i32 [ %8, %7 ], [ %14, %9 ]
  ret i32 %.0
}